; ModuleID = '50/2212.c'
source_filename = "50/2212.c"
target datalayout = "e-m:e-p270:32:32-p271:32:32-p272:64:64-i64:64-f80:128-n8:16:32:64-S128"
target triple = "x86_64-pc-linux-gnu"

@.str = private unnamed_addr constant [3 x i8] c"%d\00", align 1
@__const.main.tian = private unnamed_addr constant [13 x i32] [i32 0, i32 31, i32 28, i32 31, i32 30, i32 31, i32 30, i32 31, i32 31, i32 30, i32 31, i32 30, i32 31], align 16
@.str.1 = private unnamed_addr constant [4 x i8] c"%d\0A\00", align 1

; Function Attrs: noinline nounwind uwtable
define dso_local i32 @main() #0 {
  %1 = alloca i32, align 4
  %2 = alloca i32, align 4
  %3 = alloca i32, align 4
  %4 = alloca i32, align 4
  %5 = alloca i32, align 4
  %6 = alloca i32, align 4
  %7 = alloca i32, align 4
  %8 = alloca i32, align 4
  %9 = alloca i32, align 4
  %10 = alloca i32, align 4
  %11 = alloca [13 x i32], align 16
  %12 = alloca [12 x i32], align 16
  store i32 0, i32* %1, align 4
  store i32 0, i32* %4, align 4
  store i32 0, i32* %9, align 4
  %13 = call i32 (i8*, ...) @__isoc99_scanf(i8* getelementptr inbounds ([3 x i8], [3 x i8]* @.str, i64 0, i64 0), i32* %10)
  %14 = bitcast [13 x i32]* %11 to i8*
  call void @llvm.memcpy.p0i8.p0i8.i64(i8* align 16 %14, i8* align 16 bitcast ([13 x i32]* @__const.main.tian to i8*), i64 52, i1 false)
  store i32 0, i32* %2, align 4
  br label %15

15:                                               ; preds = %53, %0
  %16 = load i32, i32* %2, align 4
  %17 = icmp slt i32 %16, 12
  br i1 %17, label %18, label %56

18:                                               ; preds = %15
  %19 = load i32, i32* %9, align 4
  %20 = load i32, i32* %2, align 4
  %21 = sext i32 %20 to i64
  %22 = getelementptr inbounds [13 x i32], [13 x i32]* %11, i64 0, i64 %21
  %23 = load i32, i32* %22, align 4
  %24 = add nsw i32 %19, %23
  store i32 %24, i32* %9, align 4
  %25 = load i32, i32* %9, align 4
  %26 = add nsw i32 %25, 12
  %27 = srem i32 %26, 7
  store i32 %27, i32* %5, align 4
  %28 = load i32, i32* %10, align 4
  %29 = load i32, i32* %5, align 4
  %30 = add nsw i32 %28, %29
  %31 = icmp sle i32 %30, 7
  br i1 %31, label %32, label %36

32:                                               ; preds = %18
  %33 = load i32, i32* %10, align 4
  %34 = load i32, i32* %5, align 4
  %35 = add nsw i32 %33, %34
  store i32 %35, i32* %6, align 4
  br label %41

36:                                               ; preds = %18
  %37 = load i32, i32* %5, align 4
  %38 = load i32, i32* %10, align 4
  %39 = sub nsw i32 7, %38
  %40 = sub nsw i32 %37, %39
  store i32 %40, i32* %6, align 4
  br label %41

41:                                               ; preds = %36, %32
  %42 = load i32, i32* %6, align 4
  %43 = icmp eq i32 %42, 5
  br i1 %43, label %44, label %52

44:                                               ; preds = %41
  %45 = load i32, i32* %2, align 4
  %46 = add nsw i32 %45, 1
  %47 = load i32, i32* %4, align 4
  %48 = sext i32 %47 to i64
  %49 = getelementptr inbounds [12 x i32], [12 x i32]* %12, i64 0, i64 %48
  store i32 %46, i32* %49, align 4
  %50 = load i32, i32* %4, align 4
  %51 = add nsw i32 %50, 1
  store i32 %51, i32* %4, align 4
  br label %52

52:                                               ; preds = %44, %41
  br label %53

53:                                               ; preds = %52
  %54 = load i32, i32* %2, align 4
  %55 = add nsw i32 %54, 1
  store i32 %55, i32* %2, align 4
  br label %15

56:                                               ; preds = %15
  store i32 0, i32* %3, align 4
  br label %57

57:                                               ; preds = %67, %56
  %58 = load i32, i32* %3, align 4
  %59 = load i32, i32* %4, align 4
  %60 = icmp slt i32 %58, %59
  br i1 %60, label %61, label %70

61:                                               ; preds = %57
  %62 = load i32, i32* %3, align 4
  %63 = sext i32 %62 to i64
  %64 = getelementptr inbounds [12 x i32], [12 x i32]* %12, i64 0, i64 %63
  %65 = load i32, i32* %64, align 4
  %66 = call i32 (i8*, ...) @printf(i8* getelementptr inbounds ([4 x i8], [4 x i8]* @.str.1, i64 0, i64 0), i32 %65)
  br label %67

67:                                               ; preds = %61
  %68 = load i32, i32* %3, align 4
  %69 = add nsw i32 %68, 1
  store i32 %69, i32* %3, align 4
  br label %57

70:                                               ; preds = %57
  %71 = load i32, i32* %1, align 4
  ret i32 %71
}

declare dso_local i32 @__isoc99_scanf(i8*, ...) #1

; Function Attrs: argmemonly nounwind willreturn
declare void @llvm.memcpy.p0i8.p0i8.i64(i8* noalias nocapture writeonly, i8* noalias nocapture readonly, i64, i1 immarg) #2

declare dso_local i32 @printf(i8*, ...) #1


!llvm.module.flags = !{!0}
!llvm.ident = !{!1}

!0 = !{i32 1, !"wchar_size", i32 4}
!1 = !{!"clang version 10.0.0-4ubuntu1 "}
